target datalayout = "e-m:e-p270:32:32-p271:32:32-p272:64:64-i64:64-i128:128-f80:128-n8:16:32:64-S128"
target triple = "x86_64-unknown-linux-gnu"

%struct.QObjectBase_ = type { i32, i64 }
%struct.QObject = type { %struct.QObjectBase_ }

@.str.1 = private unnamed_addr constant [37 x i8] c"../qemu/qapi/qobject-input-visitor.c\00", align 1
@__func__.qobject_input_get_object = private unnamed_addr constant [25 x i8] c"qobject_input_get_object\00", align 1
@.str.5 = private unnamed_addr constant [26 x i8] c"Parameter '%s' is missing\00", align 1

; Function Attrs: nounwind sspstrong uwtable
define internal ptr @full_name(ptr noundef %qiv, ptr noundef %name) #0 {
entry:
  %qiv.addr = alloca ptr, align 8
  %name.addr = alloca ptr, align 8
  store ptr %qiv, ptr %qiv.addr, align 8
  store ptr %name, ptr %name.addr, align 8
  %0 = load ptr, ptr %qiv.addr, align 8
  %1 = load ptr, ptr %name.addr, align 8
  %call = call ptr @full_name_nth(ptr noundef %0, ptr noundef %1, i32 noundef 0)
  ret ptr %call
}

; Function Attrs: nounwind sspstrong uwtable
define internal void @qobject_ref_impl(ptr noundef %obj) #0 {
entry:
  %obj.addr = alloca ptr, align 8
  store ptr %obj, ptr %obj.addr, align 8
  %0 = load ptr, ptr %obj.addr, align 8
  %tobool = icmp ne ptr %0, null
  br i1 %tobool, label %if.then, label %if.end

if.then:                                          ; preds = %entry
  %1 = load ptr, ptr %obj.addr, align 8
  %base = getelementptr inbounds %struct.QObject, ptr %1, i32 0, i32 0
  %refcnt = getelementptr inbounds %struct.QObjectBase_, ptr %base, i32 0, i32 1
  %2 = load i64, ptr %refcnt, align 8
  %inc = add i64 %2, 1
  store i64 %inc, ptr %refcnt, align 8
  br label %if.end

if.end:                                           ; preds = %if.then, %entry
  ret void
}

; Function Attrs: nounwind sspstrong uwtable
define internal ptr @qobject_input_get_object(ptr noundef %qiv, ptr noundef %name, i1 noundef zeroext %consume, ptr noundef %errp) #0 {
entry:
  %qiv.addr = alloca ptr, align 8
  %name.addr = alloca ptr, align 8
  %consume.addr = alloca i8, align 1
  %errp.addr = alloca ptr, align 8
  %obj = alloca ptr, align 8
  store ptr %qiv, ptr %qiv.addr, align 8
  store ptr %name, ptr %name.addr, align 8
  %frombool = zext i1 %consume to i8
  store i8 %frombool, ptr %consume.addr, align 1
  store ptr %errp, ptr %errp.addr, align 8
  %0 = load ptr, ptr %qiv.addr, align 8
  %1 = load ptr, ptr %name.addr, align 8
  %2 = load i8, ptr %consume.addr, align 1
  %tobool = trunc i8 %2 to i1
  %call = call ptr @qobject_input_try_get_object(ptr noundef %0, ptr noundef %1, i1 noundef zeroext %tobool)
  store ptr %call, ptr %obj, align 8
  %3 = load ptr, ptr %obj, align 8
  %tobool1 = icmp ne ptr %3, null
  br i1 %tobool1, label %if.end, label %if.then

if.then:                                          ; preds = %entry
  %4 = load ptr, ptr %errp.addr, align 8
  %5 = load ptr, ptr %qiv.addr, align 8
  %6 = load ptr, ptr %name.addr, align 8
  %call2 = call ptr @full_name(ptr noundef %5, ptr noundef %6)
  call void (ptr, ptr, i32, ptr, ptr, ...) @error_setg_internal(ptr noundef %4, ptr noundef @.str.1, i32 noundef 171, ptr noundef @__func__.qobject_input_get_object, ptr noundef @.str.5, ptr noundef %call2)
  br label %if.end

if.end:                                           ; preds = %if.then, %entry
  %7 = load ptr, ptr %obj, align 8
  ret ptr %7
}

; Function Attrs: nounwind sspstrong uwtable
define internal ptr @to_qiv(ptr noundef %v) #0 {
entry:
  %v.addr = alloca ptr, align 8
  %__mptr = alloca ptr, align 8
  %tmp = alloca ptr, align 8
  store ptr %v, ptr %v.addr, align 8
  %0 = load ptr, ptr %v.addr, align 8
  store ptr %0, ptr %__mptr, align 8
  %1 = load ptr, ptr %__mptr, align 8
  %add.ptr = getelementptr i8, ptr %1, i64 0
  store ptr %add.ptr, ptr %tmp, align 8
  %2 = load ptr, ptr %tmp, align 8
  ret ptr %2
}

; Function Attrs: nounwind sspstrong uwtable
define internal zeroext i1 @qobject_input_type_any(ptr noundef %v, ptr noundef %name, ptr noundef %obj, ptr noundef %errp) #0 {
entry:
  %retval = alloca i1, align 1
  %v.addr = alloca ptr, align 8
  %name.addr = alloca ptr, align 8
  %obj.addr = alloca ptr, align 8
  %errp.addr = alloca ptr, align 8
  %qiv = alloca ptr, align 8
  %qobj = alloca ptr, align 8
  %_o = alloca ptr, align 8
  %_obj1 = alloca ptr, align 8
  %tmp = alloca ptr, align 8
  %__mptr = alloca ptr, align 8
  %tmp3 = alloca ptr, align 8
  %tmp4 = alloca ptr, align 8
  store ptr %v, ptr %v.addr, align 8
  store ptr %name, ptr %name.addr, align 8
  store ptr %obj, ptr %obj.addr, align 8
  store ptr %errp, ptr %errp.addr, align 8
  %0 = load ptr, ptr %v.addr, align 8
  %call = call ptr @to_qiv(ptr noundef %0)
  store ptr %call, ptr %qiv, align 8
  %1 = load ptr, ptr %qiv, align 8
  %2 = load ptr, ptr %name.addr, align 8
  %3 = load ptr, ptr %errp.addr, align 8
  %call1 = call ptr @qobject_input_get_object(ptr noundef %1, ptr noundef %2, i1 noundef zeroext true, ptr noundef %3)
  store ptr %call1, ptr %qobj, align 8
  %4 = load ptr, ptr %obj.addr, align 8
  store ptr null, ptr %4, align 8
  %5 = load ptr, ptr %qobj, align 8
  %tobool = icmp ne ptr %5, null
  br i1 %tobool, label %if.end, label %if.then

if.then:                                          ; preds = %entry
  store i1 false, ptr %retval, align 1
  br label %return

if.end:                                           ; preds = %entry
  %6 = load ptr, ptr %qobj, align 8
  store ptr %6, ptr %_o, align 8
  %7 = load ptr, ptr %_o, align 8
  store ptr %7, ptr %_obj1, align 8
  %8 = load ptr, ptr %_obj1, align 8
  %tobool2 = icmp ne ptr %8, null
  br i1 %tobool2, label %cond.true, label %cond.false

cond.true:                                        ; preds = %if.end
  %9 = load ptr, ptr %_obj1, align 8
  %base = getelementptr inbounds %struct.QObject, ptr %9, i32 0, i32 0
  store ptr %base, ptr %__mptr, align 8
  %10 = load ptr, ptr %__mptr, align 8
  %add.ptr = getelementptr i8, ptr %10, i64 0
  store ptr %add.ptr, ptr %tmp3, align 8
  %11 = load ptr, ptr %tmp3, align 8
  br label %cond.end

cond.false:                                       ; preds = %if.end
  br label %cond.end

cond.end:                                         ; preds = %cond.false, %cond.true
  %cond = phi ptr [ %11, %cond.true ], [ null, %cond.false ]
  store ptr %cond, ptr %tmp, align 8
  %12 = load ptr, ptr %tmp, align 8
  call void @qobject_ref_impl(ptr noundef %12)
  %13 = load ptr, ptr %_o, align 8
  store ptr %13, ptr %tmp4, align 8
  %14 = load ptr, ptr %tmp4, align 8
  %15 = load ptr, ptr %obj.addr, align 8
  store ptr %14, ptr %15, align 8
  store i1 true, ptr %retval, align 1
  br label %return

return:                                           ; preds = %cond.end, %if.then
  %16 = load i1, ptr %retval, align 1
  ret i1 %16
}