; Function Attrs: nounwind sspstrong uwtable
define internal noundef zeroext i1 @qobject_input_type_any(ptr noundef captures(none) %v, ptr noundef %name, ptr noundef writeonly captures(none) initializes((0, 8)) %obj, ptr noundef %errp) #0 {
entry:
  %call.i = tail call fastcc ptr @qobject_input_try_get_object(ptr noundef %v, ptr noundef %name, i1 noundef zeroext true)
  %tobool1.not.i = icmp ne ptr %call.i, null
  br i1 %tobool1.not.i, label %qobject_ref_impl.exit, label %qobject_input_get_object.exit

qobject_input_get_object.exit:                    ; preds = %entry
  %call.i.i = tail call fastcc ptr @full_name_nth(ptr noundef %v, ptr noundef %name, i32 noundef 0)
  tail call void (ptr, ptr, i32, ptr, ptr, ...) @error_setg_internal(ptr noundef %errp, ptr noundef nonnull @.str.1, i32 noundef 171, ptr noundef nonnull @__func__.qobject_input_get_object, ptr noundef nonnull @.str.5, ptr noundef %call.i.i) #8
  br label %return

qobject_ref_impl.exit:                            ; preds = %entry
  store ptr null, ptr %obj, align 8
  %refcnt.i = getelementptr inbounds nuw i8, ptr %call.i, i64 8
  %0 = load i64, ptr %refcnt.i, align 8
  %inc.i = add i64 %0, 1
  store i64 %inc.i, ptr %refcnt.i, align 8
  br label %return

return:                                           ; preds = %qobject_input_get_object.exit, %qobject_ref_impl.exit
  store ptr %call.i, ptr %obj, align 8
  ret i1 %tobool1.not.i
}